target datalayout = "e-m:e-p270:32:32-p271:32:32-p272:64:64-i64:64-i128:128-f80:128-n8:16:32:64-S128"
target triple = "x86_64-pc-linux-gnu"

%"struct.net::SerializedPacket" = type { ptr, i16, %"class.std::vector.26", i8, i16, i8, i64, i8, i8, i8, i8, i8, i8, i8, i64, %"class.std::__cxx11::list" }
%"class.std::vector.26" = type { %"struct.std::_Vector_base.27" }
%"struct.std::_Vector_base.27" = type { %"struct.std::_Vector_base<net::QuicFrame, std::allocator<net::QuicFrame>>::_Vector_impl" }
%"struct.std::_Vector_base<net::QuicFrame, std::allocator<net::QuicFrame>>::_Vector_impl" = type { %"struct.std::_Vector_base<net::QuicFrame, std::allocator<net::QuicFrame>>::_Vector_impl_data" }
%"struct.std::_Vector_base<net::QuicFrame, std::allocator<net::QuicFrame>>::_Vector_impl_data" = type { ptr, ptr, ptr }
%"class.std::__cxx11::list" = type { %"class.std::__cxx11::_List_base" }
%"class.std::__cxx11::_List_base" = type { %"struct.std::__cxx11::_List_base<net::AckListenerWrapper, std::allocator<net::AckListenerWrapper>>::_List_impl" }
%"struct.std::__cxx11::_List_base<net::AckListenerWrapper, std::allocator<net::AckListenerWrapper>>::_List_impl" = type { %"struct.std::__detail::_List_node_header" }
%"struct.std::__detail::_List_node_header" = type { %"struct.std::__detail::_List_node_base", i64 }
%"struct.std::__detail::_List_node_base" = type { ptr, ptr }

; Function Attrs: mustprogress nounwind uwtable
define linkonce_odr void @_ZNSt8__detail17_List_node_header7_M_initEv(ptr noundef nonnull align 8 dereferenceable(24) %0) #1 comdat align 2 {
  %2 = alloca ptr, align 8
  store ptr %0, ptr %2, align 8, !tbaa !448
  %3 = load ptr, ptr %2, align 8
  %4 = getelementptr inbounds nuw %"struct.std::__detail::_List_node_base", ptr %3, i32 0, i32 1
  store ptr %3, ptr %4, align 8, !tbaa !452
  %5 = getelementptr inbounds nuw %"struct.std::__detail::_List_node_base", ptr %3, i32 0, i32 0
  store ptr %3, ptr %5, align 8, !tbaa !453
  %6 = getelementptr inbounds nuw %"struct.std::__detail::_List_node_header", ptr %3, i32 0, i32 1
  store i64 0, ptr %6, align 8, !tbaa !454
  ret void
}

; Function Attrs: mustprogress nounwind uwtable
define linkonce_odr void @_ZNSt15__new_allocatorISt10_List_nodeIN3net18AckListenerWrapperEEEC2Ev(ptr noundef nonnull align 1 dereferenceable(1) %0) unnamed_addr #1 comdat align 2 {
  %2 = alloca ptr, align 8
  store ptr %0, ptr %2, align 8, !tbaa !450
  ret void
}

; Function Attrs: mustprogress nounwind uwtable
define linkonce_odr void @_ZNSt15__new_allocatorIN3net9QuicFrameEEC2Ev(ptr noundef nonnull align 1 dereferenceable(1) %0) unnamed_addr #1 comdat align 2 {
  %2 = alloca ptr, align 8
  store ptr %0, ptr %2, align 8, !tbaa !442
  ret void
}

; Function Attrs: mustprogress nounwind uwtable
define linkonce_odr void @_ZNSt8__detail17_List_node_headerC2Ev(ptr noundef nonnull align 8 dereferenceable(24) %0) unnamed_addr #1 comdat align 2 {
  %2 = alloca ptr, align 8
  store ptr %0, ptr %2, align 8, !tbaa !448
  %3 = load ptr, ptr %2, align 8
  call void @_ZNSt8__detail17_List_node_header7_M_initEv(ptr noundef nonnull align 8 dereferenceable(24) %3) #18
  ret void
}

; Function Attrs: mustprogress nounwind uwtable
define linkonce_odr void @_ZNSaISt10_List_nodeIN3net18AckListenerWrapperEEEC2Ev(ptr noundef nonnull align 1 dereferenceable(1) %0) unnamed_addr #1 comdat align 2 {
  %2 = alloca ptr, align 8
  store ptr %0, ptr %2, align 8, !tbaa !446
  %3 = load ptr, ptr %2, align 8
  call void @_ZNSt15__new_allocatorISt10_List_nodeIN3net18AckListenerWrapperEEEC2Ev(ptr noundef nonnull align 1 dereferenceable(1) %3) #18
  ret void
}

; Function Attrs: mustprogress nounwind uwtable
define linkonce_odr void @_ZNSt12_Vector_baseIN3net9QuicFrameESaIS1_EE17_Vector_impl_dataC2Ev(ptr noundef nonnull align 8 dereferenceable(24) %0) unnamed_addr #1 comdat align 2 {
  %2 = alloca ptr, align 8
  store ptr %0, ptr %2, align 8, !tbaa !439
  %3 = load ptr, ptr %2, align 8
  %4 = getelementptr inbounds nuw %"struct.std::_Vector_base<net::QuicFrame, std::allocator<net::QuicFrame>>::_Vector_impl_data", ptr %3, i32 0, i32 0
  store ptr null, ptr %4, align 8, !tbaa !332
  %5 = getelementptr inbounds nuw %"struct.std::_Vector_base<net::QuicFrame, std::allocator<net::QuicFrame>>::_Vector_impl_data", ptr %3, i32 0, i32 1
  store ptr null, ptr %5, align 8, !tbaa !333
  %6 = getelementptr inbounds nuw %"struct.std::_Vector_base<net::QuicFrame, std::allocator<net::QuicFrame>>::_Vector_impl_data", ptr %3, i32 0, i32 2
  store ptr null, ptr %6, align 8, !tbaa !441
  ret void
}

; Function Attrs: mustprogress nounwind uwtable
define linkonce_odr void @_ZNSaIN3net9QuicFrameEEC2Ev(ptr noundef nonnull align 1 dereferenceable(1) %0) unnamed_addr #1 comdat align 2 {
  %2 = alloca ptr, align 8
  store ptr %0, ptr %2, align 8, !tbaa !437
  %3 = load ptr, ptr %2, align 8
  call void @_ZNSt15__new_allocatorIN3net9QuicFrameEEC2Ev(ptr noundef nonnull align 1 dereferenceable(1) %3) #18
  ret void
}

; Function Attrs: mustprogress nounwind uwtable
define linkonce_odr void @_ZNSt7__cxx1110_List_baseIN3net18AckListenerWrapperESaIS2_EE10_List_implC2Ev(ptr noundef nonnull align 8 dereferenceable(24) %0) unnamed_addr #1 comdat align 2 {
  %2 = alloca ptr, align 8
  store ptr %0, ptr %2, align 8, !tbaa !444
  %3 = load ptr, ptr %2, align 8
  call void @_ZNSaISt10_List_nodeIN3net18AckListenerWrapperEEEC2Ev(ptr noundef nonnull align 1 dereferenceable(1) %3) #18
  %4 = getelementptr inbounds nuw %"struct.std::__cxx11::_List_base<net::AckListenerWrapper, std::allocator<net::AckListenerWrapper>>::_List_impl", ptr %3, i32 0, i32 0
  call void @_ZNSt8__detail17_List_node_headerC2Ev(ptr noundef nonnull align 8 dereferenceable(24) %4) #18
  ret void
}

; Function Attrs: mustprogress nounwind uwtable
define linkonce_odr void @_ZNSt12_Vector_baseIN3net9QuicFrameESaIS1_EE12_Vector_implC2Ev(ptr noundef nonnull align 8 dereferenceable(24) %0) unnamed_addr #1 comdat align 2 {
  %2 = alloca ptr, align 8
  store ptr %0, ptr %2, align 8, !tbaa !435
  %3 = load ptr, ptr %2, align 8
  call void @_ZNSaIN3net9QuicFrameEEC2Ev(ptr noundef nonnull align 1 dereferenceable(1) %3) #18
  call void @_ZNSt12_Vector_baseIN3net9QuicFrameESaIS1_EE17_Vector_impl_dataC2Ev(ptr noundef nonnull align 8 dereferenceable(24) %3) #18
  ret void
}

; Function Attrs: mustprogress nounwind uwtable
define linkonce_odr void @_ZNSt7__cxx1110_List_baseIN3net18AckListenerWrapperESaIS2_EEC2Ev(ptr noundef nonnull align 8 dereferenceable(24) %0) unnamed_addr #1 comdat align 2 {
  %2 = alloca ptr, align 8
  store ptr %0, ptr %2, align 8, !tbaa !334
  %3 = load ptr, ptr %2, align 8
  %4 = getelementptr inbounds nuw %"class.std::__cxx11::_List_base", ptr %3, i32 0, i32 0
  call void @_ZNSt7__cxx1110_List_baseIN3net18AckListenerWrapperESaIS2_EE10_List_implC2Ev(ptr noundef nonnull align 8 dereferenceable(24) %4) #18
  ret void
}

; Function Attrs: mustprogress nounwind uwtable
define linkonce_odr void @_ZNSt12_Vector_baseIN3net9QuicFrameESaIS1_EEC2Ev(ptr noundef nonnull align 8 dereferenceable(24) %0) unnamed_addr #1 comdat align 2 {
  %2 = alloca ptr, align 8
  store ptr %0, ptr %2, align 8, !tbaa !433
  %3 = load ptr, ptr %2, align 8
  %4 = getelementptr inbounds nuw %"struct.std::_Vector_base.27", ptr %3, i32 0, i32 0
  call void @_ZNSt12_Vector_baseIN3net9QuicFrameESaIS1_EE12_Vector_implC2Ev(ptr noundef nonnull align 8 dereferenceable(24) %4) #18
  ret void
}

; Function Attrs: mustprogress nounwind uwtable
define linkonce_odr void @_ZNSt7__cxx114listIN3net18AckListenerWrapperESaIS2_EEC2Ev(ptr noundef nonnull align 8 dereferenceable(24) %0) unnamed_addr #1 comdat align 2 {
  %2 = alloca ptr, align 8
  store ptr %0, ptr %2, align 8, !tbaa !330
  %3 = load ptr, ptr %2, align 8
  call void @_ZNSt7__cxx1110_List_baseIN3net18AckListenerWrapperESaIS2_EEC2Ev(ptr noundef nonnull align 8 dereferenceable(24) %3) #18
  ret void
}

; Function Attrs: mustprogress nounwind uwtable
define linkonce_odr void @_ZNSt6vectorIN3net9QuicFrameESaIS1_EEC2Ev(ptr noundef nonnull align 8 dereferenceable(24) %0) unnamed_addr #1 comdat align 2 {
  %2 = alloca ptr, align 8
  store ptr %0, ptr %2, align 8, !tbaa !328
  %3 = load ptr, ptr %2, align 8
  call void @_ZNSt12_Vector_baseIN3net9QuicFrameESaIS1_EEC2Ev(ptr noundef nonnull align 8 dereferenceable(24) %3) #18
  ret void
}

; Function Attrs: mustprogress nounwind uwtable
define void @_ZN3net16SerializedPacketC2EhmNS_22QuicPacketNumberLengthEPKcthbb(ptr noundef nonnull align 8 dereferenceable(96) %0, i8 noundef zeroext %1, i64 noundef %2, i8 noundef signext %3, ptr noundef %4, i16 noundef zeroext %5, i8 noundef zeroext %6, i1 noundef zeroext %7, i1 noundef zeroext %8) unnamed_addr #1 align 2 {
  %10 = alloca ptr, align 8
  %11 = alloca i8, align 1
  %12 = alloca i64, align 8
  %13 = alloca i8, align 1
  %14 = alloca ptr, align 8
  %15 = alloca i16, align 2
  %16 = alloca i8, align 1
  %17 = alloca i8, align 1
  %18 = alloca i8, align 1
  store ptr %0, ptr %10, align 8, !tbaa !298
  store i8 %1, ptr %11, align 1, !tbaa !110
  store i64 %2, ptr %12, align 8, !tbaa !71
  store i8 %3, ptr %13, align 1, !tbaa !30
  store ptr %4, ptr %14, align 8, !tbaa !66
  store i16 %5, ptr %15, align 2, !tbaa !80
  store i8 %6, ptr %16, align 1, !tbaa !110
  %19 = zext i1 %7 to i8
  store i8 %19, ptr %17, align 1, !tbaa !29
  %20 = zext i1 %8 to i8
  store i8 %20, ptr %18, align 1, !tbaa !29
  %21 = load ptr, ptr %10, align 8
  %22 = getelementptr inbounds nuw %"struct.net::SerializedPacket", ptr %21, i32 0, i32 0
  %23 = load ptr, ptr %14, align 8, !tbaa !66
  store ptr %23, ptr %22, align 8, !tbaa !300
  %24 = getelementptr inbounds nuw %"struct.net::SerializedPacket", ptr %21, i32 0, i32 1
  %25 = load i16, ptr %15, align 2, !tbaa !80
  store i16 %25, ptr %24, align 8, !tbaa !315
  %26 = getelementptr inbounds nuw %"struct.net::SerializedPacket", ptr %21, i32 0, i32 2
  call void @_ZNSt6vectorIN3net9QuicFrameESaIS1_EEC2Ev(ptr noundef nonnull align 8 dereferenceable(24) %26) #18
  %27 = getelementptr inbounds nuw %"struct.net::SerializedPacket", ptr %21, i32 0, i32 3
  store i8 0, ptr %27, align 8, !tbaa !316
  %28 = getelementptr inbounds nuw %"struct.net::SerializedPacket", ptr %21, i32 0, i32 4
  store i16 0, ptr %28, align 2, !tbaa !317
  %29 = getelementptr inbounds nuw %"struct.net::SerializedPacket", ptr %21, i32 0, i32 5
  %30 = load i8, ptr %11, align 1, !tbaa !110
  store i8 %30, ptr %29, align 4, !tbaa !318
  %31 = getelementptr inbounds nuw %"struct.net::SerializedPacket", ptr %21, i32 0, i32 6
  %32 = load i64, ptr %12, align 8, !tbaa !71
  store i64 %32, ptr %31, align 8, !tbaa !319
  %33 = getelementptr inbounds nuw %"struct.net::SerializedPacket", ptr %21, i32 0, i32 7
  %34 = load i8, ptr %13, align 1, !tbaa !30
  store i8 %34, ptr %33, align 8, !tbaa !320
  %35 = getelementptr inbounds nuw %"struct.net::SerializedPacket", ptr %21, i32 0, i32 8
  store i8 0, ptr %35, align 1, !tbaa !321
  %36 = getelementptr inbounds nuw %"struct.net::SerializedPacket", ptr %21, i32 0, i32 9
  %37 = load i8, ptr %16, align 1, !tbaa !110
  store i8 %37, ptr %36, align 2, !tbaa !322
  %38 = getelementptr inbounds nuw %"struct.net::SerializedPacket", ptr %21, i32 0, i32 10
  %39 = load i8, ptr %17, align 1, !tbaa !29, !range !23, !noundef !24
  %40 = trunc i8 %39 to i1
  %41 = zext i1 %40 to i8
  store i8 %41, ptr %38, align 1, !tbaa !323
  %42 = getelementptr inbounds nuw %"struct.net::SerializedPacket", ptr %21, i32 0, i32 11
  %43 = load i8, ptr %18, align 1, !tbaa !29, !range !23, !noundef !24
  %44 = trunc i8 %43 to i1
  %45 = zext i1 %44 to i8
  store i8 %45, ptr %42, align 4, !tbaa !324
  %46 = getelementptr inbounds nuw %"struct.net::SerializedPacket", ptr %21, i32 0, i32 12
  store i8 0, ptr %46, align 1, !tbaa !325
  %47 = getelementptr inbounds nuw %"struct.net::SerializedPacket", ptr %21, i32 0, i32 13
  store i8 -1, ptr %47, align 2, !tbaa !326
  %48 = getelementptr inbounds nuw %"struct.net::SerializedPacket", ptr %21, i32 0, i32 14
  store i64 0, ptr %48, align 8, !tbaa !327
  %49 = getelementptr inbounds nuw %"struct.net::SerializedPacket", ptr %21, i32 0, i32 15
  call void @_ZNSt7__cxx114listIN3net18AckListenerWrapperESaIS2_EEC2Ev(ptr noundef nonnull align 8 dereferenceable(24) %49) #18
  ret void
}