; Function Attrs: mustprogress nofree norecurse nosync nounwind willreturn memory(argmem: write) uwtable
define void @_ZN3net16SerializedPacketC2EhmNS_22QuicPacketNumberLengthEPKcthbb(ptr noundef nonnull align 8 dereferenceable(96) initializes((0, 10), (16, 41), (42, 45), (48, 63), (64, 72)) %0, i8 noundef zeroext %1, i64 noundef %2, i8 noundef signext %3, ptr noundef %4, i16 noundef zeroext %5, i8 noundef zeroext %6, i1 noundef zeroext %7, i1 noundef zeroext %8) unnamed_addr #2 align 2 {
  %10 = zext i1 %7 to i8
  %11 = zext i1 %8 to i8
  store ptr %4, ptr %0, align 8, !tbaa !231
  %12 = getelementptr inbounds nuw i8, ptr %0, i64 8
  store i16 %5, ptr %12, align 8, !tbaa !247
  %13 = getelementptr inbounds nuw i8, ptr %0, i64 16
  %14 = getelementptr inbounds nuw i8, ptr %0, i64 42
  store i16 0, ptr %14, align 2, !tbaa !248
  %15 = getelementptr inbounds nuw i8, ptr %0, i64 44
  tail call void @llvm.memset.p0.i64(ptr noundef nonnull align 8 dereferenceable(25) %13, i8 0, i64 25, i1 false)
  store i8 %1, ptr %15, align 4, !tbaa !249
  %16 = getelementptr inbounds nuw i8, ptr %0, i64 48
  store i64 %2, ptr %16, align 8, !tbaa !250
  %17 = getelementptr inbounds nuw i8, ptr %0, i64 56
  store i8 %3, ptr %17, align 8, !tbaa !251
  %18 = getelementptr inbounds nuw i8, ptr %0, i64 57
  store i8 0, ptr %18, align 1, !tbaa !252
  %19 = getelementptr inbounds nuw i8, ptr %0, i64 58
  store i8 %6, ptr %19, align 2, !tbaa !253
  %20 = getelementptr inbounds nuw i8, ptr %0, i64 59
  store i8 %10, ptr %20, align 1, !tbaa !254
  %21 = getelementptr inbounds nuw i8, ptr %0, i64 60
  store i8 %11, ptr %21, align 4, !tbaa !255
  %22 = getelementptr inbounds nuw i8, ptr %0, i64 61
  store i8 0, ptr %22, align 1, !tbaa !256
  %23 = getelementptr inbounds nuw i8, ptr %0, i64 62
  store i8 -1, ptr %23, align 2, !tbaa !257
  %24 = getelementptr inbounds nuw i8, ptr %0, i64 64
  store i64 0, ptr %24, align 8, !tbaa !258
  %25 = getelementptr inbounds nuw i8, ptr %0, i64 72
  %26 = getelementptr inbounds nuw i8, ptr %0, i64 80
  store ptr %25, ptr %26, align 8, !tbaa !259
  store ptr %25, ptr %25, align 8, !tbaa !260
  %27 = getelementptr inbounds nuw i8, ptr %0, i64 88
  store i64 0, ptr %27, align 8, !tbaa !261
  ret void
}